; ModuleID = 'source-C-CXX/29/2789.cpp'
source_filename = "source-C-CXX/29/2789.cpp"
target datalayout = "e-m:e-p270:32:32-p271:32:32-p272:64:64-i64:64-f80:128-n8:16:32:64-S128"
target triple = "x86_64-pc-linux-gnu"

%"class.std::ios_base::Init" = type { i8 }
%"class.std::basic_istream" = type { i32 (...)**, i64, %"class.std::basic_ios" }
%"class.std::basic_ios" = type { %"class.std::ios_base", %"class.std::basic_ostream"*, i8, i8, %"class.std::basic_streambuf"*, %"class.std::ctype"*, %"class.std::num_put"*, %"class.std::num_get"* }
%"class.std::ios_base" = type { i32 (...)**, i64, i64, i32, i32, i32, %"struct.std::ios_base::_Callback_list"*, %"struct.std::ios_base::_Words", [8 x %"struct.std::ios_base::_Words"], i32, %"struct.std::ios_base::_Words"*, %"class.std::locale" }
%"struct.std::ios_base::_Callback_list" = type { %"struct.std::ios_base::_Callback_list"*, void (i32, %"class.std::ios_base"*, i32)*, i32, i32 }
%"struct.std::ios_base::_Words" = type { i8*, i64 }
%"class.std::locale" = type { %"class.std::locale::_Impl"* }
%"class.std::locale::_Impl" = type { i32, %"class.std::locale::facet"**, i64, %"class.std::locale::facet"**, i8** }
%"class.std::locale::facet" = type <{ i32 (...)**, i32, [4 x i8] }>
%"class.std::basic_ostream" = type { i32 (...)**, %"class.std::basic_ios" }
%"class.std::basic_streambuf" = type { i32 (...)**, i8*, i8*, i8*, i8*, i8*, i8*, %"class.std::locale" }
%"class.std::ctype" = type <{ %"class.std::locale::facet.base", [4 x i8], %struct.__locale_struct*, i8, [7 x i8], i32*, i32*, i16*, i8, [256 x i8], [256 x i8], i8, [6 x i8] }>
%"class.std::locale::facet.base" = type <{ i32 (...)**, i32 }>
%struct.__locale_struct = type { [13 x %struct.__locale_data*], i16*, i32*, i32*, [13 x i8*] }
%struct.__locale_data = type opaque
%"class.std::num_put" = type { %"class.std::locale::facet.base", [4 x i8] }
%"class.std::num_get" = type { %"class.std::locale::facet.base", [4 x i8] }

@_ZStL8__ioinit = internal global %"class.std::ios_base::Init" zeroinitializer, align 1
@__dso_handle = external hidden global i8
@_ZSt3cin = external global %"class.std::basic_istream", align 8
@_ZSt4cout = external global %"class.std::basic_ostream", align 8
@llvm.global_ctors = appending global [1 x { i32, void ()*, i8* }] [{ i32, void ()*, i8* } { i32 65535, void ()* @_GLOBAL__sub_I_2789.cpp, i8* null }]

declare void @_ZNSt8ios_base4InitC1Ev(%"class.std::ios_base::Init"* nonnull align 1 dereferenceable(1)) unnamed_addr #0

; Function Attrs: nounwind
declare void @_ZNSt8ios_base4InitD1Ev(%"class.std::ios_base::Init"* nonnull align 1 dereferenceable(1)) unnamed_addr #1

; Function Attrs: nofree nounwind
declare i32 @__cxa_atexit(void (i8*)*, i8*, i8*) local_unnamed_addr #2

; Function Attrs: mustprogress norecurse sspstrong uwtable
define dso_local i32 @main() local_unnamed_addr #3 {
  %1 = alloca i32, align 4
  %2 = bitcast i32* %1 to i8*
  call void @llvm.lifetime.start.p0i8(i64 4, i8* nonnull %2) #8
  %3 = call nonnull align 8 dereferenceable(16) %"class.std::basic_istream"* @_ZNSirsERi(%"class.std::basic_istream"* nonnull align 8 dereferenceable(16) @_ZSt3cin, i32* nonnull align 4 dereferenceable(4) %1)
  %4 = load i32, i32* %1, align 4, !tbaa !5
  %5 = icmp slt i32 %4, 0
  br i1 %5, label %104, label %6

6:                                                ; preds = %0
  %7 = add i32 %4, 1
  %8 = icmp ult i32 %7, 8
  br i1 %8, label %70, label %9

9:                                                ; preds = %6
  %10 = and i32 %7, -8
  br label %11

11:                                               ; preds = %11, %9
  %12 = phi i32 [ 0, %9 ], [ %63, %11 ]
  %13 = phi <4 x i32> [ <i32 0, i32 1, i32 2, i32 3>, %9 ], [ %64, %11 ]
  %14 = phi <4 x i32> [ zeroinitializer, %9 ], [ %60, %11 ]
  %15 = phi <4 x i32> [ zeroinitializer, %9 ], [ %62, %11 ]
  %16 = add <4 x i32> %13, <i32 4, i32 4, i32 4, i32 4>
  %17 = freeze <4 x i32> %13
  %18 = udiv <4 x i32> %17, <i32 10, i32 10, i32 10, i32 10>
  %19 = freeze <4 x i32> %16
  %20 = udiv <4 x i32> %19, <i32 10, i32 10, i32 10, i32 10>
  %21 = mul <4 x i32> %18, <i32 -10, i32 -10, i32 -10, i32 -10>
  %22 = mul <4 x i32> %20, <i32 -10, i32 -10, i32 -10, i32 -10>
  %23 = add <4 x i32> %21, %13
  %24 = add <4 x i32> %22, %16
  %25 = icmp ugt <4 x i32> %13, <i32 10, i32 10, i32 10, i32 10>
  %26 = icmp ugt <4 x i32> %16, <i32 10, i32 10, i32 10, i32 10>
  %27 = urem <4 x i32> %13, <i32 7, i32 7, i32 7, i32 7>
  %28 = urem <4 x i32> %16, <i32 7, i32 7, i32 7, i32 7>
  %29 = icmp eq <4 x i32> %27, zeroinitializer
  %30 = icmp eq <4 x i32> %28, zeroinitializer
  %31 = or <4 x i1> %25, %29
  %32 = or <4 x i1> %26, %30
  %33 = mul <4 x i32> %18, <i32 10, i32 10, i32 10, i32 10>
  %34 = sub <4 x i32> %17, %33
  %35 = mul <4 x i32> %20, <i32 10, i32 10, i32 10, i32 10>
  %36 = sub <4 x i32> %19, %35
  %37 = icmp ne <4 x i32> %34, zeroinitializer
  %38 = icmp ne <4 x i32> %36, zeroinitializer
  %39 = or <4 x i1> %37, %29
  %40 = or <4 x i1> %38, %30
  %41 = srem <4 x i32> %23, <i32 7, i32 7, i32 7, i32 7>
  %42 = srem <4 x i32> %24, <i32 7, i32 7, i32 7, i32 7>
  %43 = icmp eq <4 x i32> %41, zeroinitializer
  %44 = icmp eq <4 x i32> %42, zeroinitializer
  %45 = select <4 x i1> %29, <4 x i1> <i1 true, i1 true, i1 true, i1 true>, <4 x i1> %43
  %46 = select <4 x i1> %30, <4 x i1> <i1 true, i1 true, i1 true, i1 true>, <4 x i1> %44
  %47 = urem <4 x i32> %18, <i32 7, i32 7, i32 7, i32 7>
  %48 = urem <4 x i32> %20, <i32 7, i32 7, i32 7, i32 7>
  %49 = icmp eq <4 x i32> %47, zeroinitializer
  %50 = icmp eq <4 x i32> %48, zeroinitializer
  %51 = select <4 x i1> %45, <4 x i1> <i1 true, i1 true, i1 true, i1 true>, <4 x i1> %49
  %52 = select <4 x i1> %46, <4 x i1> <i1 true, i1 true, i1 true, i1 true>, <4 x i1> %50
  %53 = select <4 x i1> %31, <4 x i1> %39, <4 x i1> zeroinitializer
  %54 = select <4 x i1> %32, <4 x i1> %40, <4 x i1> zeroinitializer
  %55 = select <4 x i1> %53, <4 x i1> %51, <4 x i1> zeroinitializer
  %56 = select <4 x i1> %54, <4 x i1> %52, <4 x i1> zeroinitializer
  %57 = mul nsw <4 x i32> %13, %13
  %58 = mul nsw <4 x i32> %16, %16
  %59 = select <4 x i1> %55, <4 x i32> zeroinitializer, <4 x i32> %57
  %60 = add <4 x i32> %14, %59
  %61 = select <4 x i1> %56, <4 x i32> zeroinitializer, <4 x i32> %58
  %62 = add <4 x i32> %15, %61
  %63 = add nuw i32 %12, 8
  %64 = add <4 x i32> %13, <i32 8, i32 8, i32 8, i32 8>
  %65 = icmp eq i32 %63, %10
  br i1 %65, label %66, label %11, !llvm.loop !9

66:                                               ; preds = %11
  %67 = add <4 x i32> %62, %60
  %68 = call i32 @llvm.vector.reduce.add.v4i32(<4 x i32> %67)
  %69 = icmp eq i32 %7, %10
  br i1 %69, label %104, label %70

70:                                               ; preds = %6, %66
  %71 = phi i32 [ 0, %6 ], [ %10, %66 ]
  %72 = phi i32 [ 0, %6 ], [ %68, %66 ]
  br label %73

73:                                               ; preds = %70, %100
  %74 = phi i32 [ %102, %100 ], [ %71, %70 ]
  %75 = phi i32 [ %101, %100 ], [ %72, %70 ]
  %76 = udiv i32 %74, 10
  %77 = urem i32 %74, 10
  %78 = mul i32 %76, -10
  %79 = add i32 %78, %74
  %80 = icmp ugt i32 %74, 10
  %81 = urem i32 %74, 7
  %82 = icmp eq i32 %81, 0
  %83 = or i1 %80, %82
  %84 = icmp ne i32 %77, 0
  %85 = or i1 %84, %82
  %86 = select i1 %83, i1 %85, i1 false
  br i1 %86, label %90, label %87

87:                                               ; preds = %73
  %88 = mul nsw i32 %74, %74
  %89 = add nsw i32 %88, %75
  br label %100

90:                                               ; preds = %73
  %91 = srem i32 %79, 7
  %92 = icmp eq i32 %91, 0
  %93 = select i1 %82, i1 true, i1 %92
  %94 = urem i32 %76, 7
  %95 = icmp eq i32 %94, 0
  %96 = select i1 %93, i1 true, i1 %95
  br i1 %96, label %100, label %97

97:                                               ; preds = %90
  %98 = mul nsw i32 %74, %74
  %99 = add nsw i32 %98, %75
  br label %100

100:                                              ; preds = %87, %97, %90
  %101 = phi i32 [ %89, %87 ], [ %99, %97 ], [ %75, %90 ]
  %102 = add nuw i32 %74, 1
  %103 = icmp eq i32 %74, %4
  br i1 %103, label %104, label %73, !llvm.loop !12

104:                                              ; preds = %100, %66, %0
  %105 = phi i32 [ 0, %0 ], [ %68, %66 ], [ %101, %100 ]
  %106 = call nonnull align 8 dereferenceable(8) %"class.std::basic_ostream"* @_ZNSolsEi(%"class.std::basic_ostream"* nonnull align 8 dereferenceable(8) @_ZSt4cout, i32 %105)
  %107 = bitcast %"class.std::basic_ostream"* %106 to i8**
  %108 = load i8*, i8** %107, align 8, !tbaa !14
  %109 = getelementptr i8, i8* %108, i64 -24
  %110 = bitcast i8* %109 to i64*
  %111 = load i64, i64* %110, align 8
  %112 = bitcast %"class.std::basic_ostream"* %106 to i8*
  %113 = add nsw i64 %111, 240
  %114 = getelementptr inbounds i8, i8* %112, i64 %113
  %115 = bitcast i8* %114 to %"class.std::ctype"**
  %116 = load %"class.std::ctype"*, %"class.std::ctype"** %115, align 8, !tbaa !16
  %117 = icmp eq %"class.std::ctype"* %116, null
  br i1 %117, label %118, label %119

118:                                              ; preds = %104
  call void @_ZSt16__throw_bad_castv() #9
  unreachable

119:                                              ; preds = %104
  %120 = getelementptr inbounds %"class.std::ctype", %"class.std::ctype"* %116, i64 0, i32 8
  %121 = load i8, i8* %120, align 8, !tbaa !20
  %122 = icmp eq i8 %121, 0
  br i1 %122, label %126, label %123

123:                                              ; preds = %119
  %124 = getelementptr inbounds %"class.std::ctype", %"class.std::ctype"* %116, i64 0, i32 9, i64 10
  %125 = load i8, i8* %124, align 1, !tbaa !22
  br label %132

126:                                              ; preds = %119
  call void @_ZNKSt5ctypeIcE13_M_widen_initEv(%"class.std::ctype"* nonnull align 8 dereferenceable(570) %116)
  %127 = bitcast %"class.std::ctype"* %116 to i8 (%"class.std::ctype"*, i8)***
  %128 = load i8 (%"class.std::ctype"*, i8)**, i8 (%"class.std::ctype"*, i8)*** %127, align 8, !tbaa !14
  %129 = getelementptr inbounds i8 (%"class.std::ctype"*, i8)*, i8 (%"class.std::ctype"*, i8)** %128, i64 6
  %130 = load i8 (%"class.std::ctype"*, i8)*, i8 (%"class.std::ctype"*, i8)** %129, align 8
  %131 = call signext i8 %130(%"class.std::ctype"* nonnull align 8 dereferenceable(570) %116, i8 signext 10)
  br label %132

132:                                              ; preds = %123, %126
  %133 = phi i8 [ %125, %123 ], [ %131, %126 ]
  %134 = call nonnull align 8 dereferenceable(8) %"class.std::basic_ostream"* @_ZNSo3putEc(%"class.std::basic_ostream"* nonnull align 8 dereferenceable(8) %106, i8 signext %133)
  %135 = call nonnull align 8 dereferenceable(8) %"class.std::basic_ostream"* @_ZNSo5flushEv(%"class.std::basic_ostream"* nonnull align 8 dereferenceable(8) %134)
  call void @llvm.lifetime.end.p0i8(i64 4, i8* nonnull %2) #8
  ret i32 0
}

; Function Attrs: argmemonly mustprogress nofree nosync nounwind willreturn
declare void @llvm.lifetime.start.p0i8(i64 immarg, i8* nocapture) #4

declare nonnull align 8 dereferenceable(16) %"class.std::basic_istream"* @_ZNSirsERi(%"class.std::basic_istream"* nonnull align 8 dereferenceable(16), i32* nonnull align 4 dereferenceable(4)) local_unnamed_addr #0

declare nonnull align 8 dereferenceable(8) %"class.std::basic_ostream"* @_ZNSolsEi(%"class.std::basic_ostream"* nonnull align 8 dereferenceable(8), i32) local_unnamed_addr #0

; Function Attrs: argmemonly mustprogress nofree nosync nounwind willreturn
declare void @llvm.lifetime.end.p0i8(i64 immarg, i8* nocapture) #4

declare nonnull align 8 dereferenceable(8) %"class.std::basic_ostream"* @_ZNSo3putEc(%"class.std::basic_ostream"* nonnull align 8 dereferenceable(8), i8 signext) local_unnamed_addr #0

declare nonnull align 8 dereferenceable(8) %"class.std::basic_ostream"* @_ZNSo5flushEv(%"class.std::basic_ostream"* nonnull align 8 dereferenceable(8)) local_unnamed_addr #0

; Function Attrs: noreturn
declare void @_ZSt16__throw_bad_castv() local_unnamed_addr #5

declare void @_ZNKSt5ctypeIcE13_M_widen_initEv(%"class.std::ctype"* nonnull align 8 dereferenceable(570)) local_unnamed_addr #0

; Function Attrs: sspstrong uwtable
define internal void @_GLOBAL__sub_I_2789.cpp() #6 section ".text.startup" {
  tail call void @_ZNSt8ios_base4InitC1Ev(%"class.std::ios_base::Init"* nonnull align 1 dereferenceable(1) @_ZStL8__ioinit)
  %1 = tail call i32 @__cxa_atexit(void (i8*)* bitcast (void (%"class.std::ios_base::Init"*)* @_ZNSt8ios_base4InitD1Ev to void (i8*)*), i8* getelementptr inbounds (%"class.std::ios_base::Init", %"class.std::ios_base::Init"* @_ZStL8__ioinit, i64 0, i32 0), i8* nonnull @__dso_handle) #8
  ret void
}

; Function Attrs: nofree nosync nounwind readnone willreturn
declare i32 @llvm.vector.reduce.add.v4i32(<4 x i32>) #7


!llvm.module.flags = !{!0, !1, !2, !3}
!llvm.ident = !{!4}

!0 = !{i32 1, !"wchar_size", i32 4}
!1 = !{i32 7, !"PIC Level", i32 2}
!2 = !{i32 7, !"PIE Level", i32 2}
!3 = !{i32 7, !"uwtable", i32 1}
!4 = !{!"clang version 13.0.0"}
!5 = !{!6, !6, i64 0}
!6 = !{!"int", !7, i64 0}
!7 = !{!"omnipotent char", !8, i64 0}
!8 = !{!"Simple C++ TBAA"}
!9 = distinct !{!9, !10, !11}
!10 = !{!"llvm.loop.mustprogress"}
!11 = !{!"llvm.loop.isvectorized", i32 1}
!12 = distinct !{!12, !10, !13, !11}
!13 = !{!"llvm.loop.unroll.runtime.disable"}
!14 = !{!15, !15, i64 0}
!15 = !{!"vtable pointer", !8, i64 0}
!16 = !{!17, !18, i64 240}
!17 = !{!"_ZTSSt9basic_iosIcSt11char_traitsIcEE", !18, i64 216, !7, i64 224, !19, i64 225, !18, i64 232, !18, i64 240, !18, i64 248, !18, i64 256}
!18 = !{!"any pointer", !7, i64 0}
!19 = !{!"bool", !7, i64 0}
!20 = !{!21, !7, i64 56}
!21 = !{!"_ZTSSt5ctypeIcE", !18, i64 16, !19, i64 24, !18, i64 32, !18, i64 40, !18, i64 48, !7, i64 56, !7, i64 57, !7, i64 313, !7, i64 569}
!22 = !{!7, !7, i64 0}
